target datalayout = "e-m:e-p270:32:32-p271:32:32-p272:64:64-i64:64-i128:128-f80:128-n8:16:32:64-S128"
target triple = "x86_64-pc-linux-gnu"

%struct.sgr_params_type = type { [2 x i32], [2 x i32] }

; Function Attrs: nounwind uwtable
define hidden void @av1_decode_xq(ptr noundef %0, ptr noundef %1, ptr noundef %2) #0 {
  %4 = alloca ptr, align 8
  %5 = alloca ptr, align 8
  %6 = alloca ptr, align 8
  store ptr %0, ptr %4, align 8
  store ptr %1, ptr %5, align 8
  store ptr %2, ptr %6, align 8
  %7 = load ptr, ptr %6, align 8
  %8 = getelementptr inbounds nuw %struct.sgr_params_type, ptr %7, i32 0, i32 0
  %9 = getelementptr inbounds [2 x i32], ptr %8, i64 0, i64 0
  %10 = load i32, ptr %9, align 4
  %11 = icmp eq i32 %10, 0
  br i1 %11, label %12, label %21

12:                                               ; preds = %3
  %13 = load ptr, ptr %5, align 8
  %14 = getelementptr inbounds i32, ptr %13, i64 0
  store i32 0, ptr %14, align 4
  %15 = load ptr, ptr %4, align 8
  %16 = getelementptr inbounds i32, ptr %15, i64 1
  %17 = load i32, ptr %16, align 4
  %18 = sub nsw i32 128, %17
  %19 = load ptr, ptr %5, align 8
  %20 = getelementptr inbounds i32, ptr %19, i64 1
  store i32 %18, ptr %20, align 4
  br label %52

21:                                               ; preds = %3
  %22 = load ptr, ptr %6, align 8
  %23 = getelementptr inbounds nuw %struct.sgr_params_type, ptr %22, i32 0, i32 0
  %24 = getelementptr inbounds [2 x i32], ptr %23, i64 0, i64 1
  %25 = load i32, ptr %24, align 4
  %26 = icmp eq i32 %25, 0
  br i1 %26, label %27, label %35

27:                                               ; preds = %21
  %28 = load ptr, ptr %4, align 8
  %29 = getelementptr inbounds i32, ptr %28, i64 0
  %30 = load i32, ptr %29, align 4
  %31 = load ptr, ptr %5, align 8
  %32 = getelementptr inbounds i32, ptr %31, i64 0
  store i32 %30, ptr %32, align 4
  %33 = load ptr, ptr %5, align 8
  %34 = getelementptr inbounds i32, ptr %33, i64 1
  store i32 0, ptr %34, align 4
  br label %51

35:                                               ; preds = %21
  %36 = load ptr, ptr %4, align 8
  %37 = getelementptr inbounds i32, ptr %36, i64 0
  %38 = load i32, ptr %37, align 4
  %39 = load ptr, ptr %5, align 8
  %40 = getelementptr inbounds i32, ptr %39, i64 0
  store i32 %38, ptr %40, align 4
  %41 = load ptr, ptr %5, align 8
  %42 = getelementptr inbounds i32, ptr %41, i64 0
  %43 = load i32, ptr %42, align 4
  %44 = sub nsw i32 128, %43
  %45 = load ptr, ptr %4, align 8
  %46 = getelementptr inbounds i32, ptr %45, i64 1
  %47 = load i32, ptr %46, align 4
  %48 = sub nsw i32 %44, %47
  %49 = load ptr, ptr %5, align 8
  %50 = getelementptr inbounds i32, ptr %49, i64 1
  store i32 %48, ptr %50, align 4
  br label %51

51:                                               ; preds = %35, %27
  br label %52

52:                                               ; preds = %51, %12
  ret void
}