; Function Attrs: mustprogress nofree norecurse nosync nounwind willreturn memory(argmem: readwrite) uwtable
define hidden void @av1_decode_xq(ptr noundef readonly captures(none) %0, ptr noundef writeonly captures(none) initializes((0, 8)) %1, ptr noundef readonly captures(none) %2) local_unnamed_addr #5 {
  %4 = load i32, ptr %2, align 4
  %5 = icmp eq i32 %4, 0
  br i1 %5, label %6, label %10

6:                                                ; preds = %3
  store i32 0, ptr %1, align 4
  %7 = getelementptr inbounds nuw i8, ptr %0, i64 4
  %8 = load i32, ptr %7, align 4
  %9 = sub nsw i32 128, %8
  br label %20

10:                                               ; preds = %3
  %11 = getelementptr inbounds nuw i8, ptr %2, i64 4
  %12 = load i32, ptr %11, align 4
  %13 = icmp eq i32 %12, 0
  %14 = load i32, ptr %0, align 4
  store i32 %14, ptr %1, align 4
  br i1 %13, label %20, label %15

15:                                               ; preds = %10
  %16 = getelementptr inbounds nuw i8, ptr %0, i64 4
  %17 = load i32, ptr %16, align 4
  %18 = add i32 %14, %17
  %19 = sub i32 128, %18
  br label %20

20:                                               ; preds = %10, %15, %6
  %.sink = phi i32 [ %19, %15 ], [ %9, %6 ], [ 0, %10 ]
  %21 = getelementptr inbounds nuw i8, ptr %1, i64 4
  store i32 %.sink, ptr %21, align 4
  ret void
}